; Function Attrs: mustprogress uwtable
define noundef zeroext i1 @_ZNK4cvc58internal8TypeNode11isBitVectorEj(ptr noundef nonnull readonly align 8 captures(none) dereferenceable(8) %0, i32 noundef %1) local_unnamed_addr #4 align 2 {
  %3 = load ptr, ptr %0, align 8, !tbaa !3
  %4 = getelementptr inbounds nuw i8, ptr %3, i64 8
  %5 = load i64, ptr %4, align 8
  %6 = and i64 %5, 1023
  %7 = icmp eq i64 %6, 87
  br i1 %7, label %8, label %12

8:                                                ; preds = %2
  %9 = tail call noundef nonnull align 4 dereferenceable(4) ptr @_ZNK4cvc58internal4expr9NodeValue8getConstINS0_13BitVectorSizeEEERKT_v(ptr noundef nonnull align 8 dereferenceable(24) %3)
  %10 = load i32, ptr %9, align 4, !tbaa !169
  %11 = icmp eq i32 %10, %1
  br label %12

12:                                               ; preds = %8, %2
  %13 = phi i1 [ false, %2 ], [ %11, %8 ]
  ret i1 %13
}